; ModuleID = 'bench/clamav/original/fpu.c.ll'
source_filename = "bench/clamav/original/fpu.c.ll"
target datalayout = "e-m:e-p270:32:32-p271:32:32-p272:64:64-i64:64-i128:128-f80:128-n8:16:32:64-S128"
target triple = "x86_64-pc-linux-gnu"

@.str.2 = private unnamed_addr constant [45 x i8] c"fpu: Floating point little endian detected.\0A\00", align 1

; Function Attrs: nounwind uwtable
define noundef i32 @get_fpu_endian() local_unnamed_addr #0 {
  tail call void (ptr, ...) @cli_dbgmsg(ptr noundef nonnull @.str.2) #2
  ret i32 2
}

declare void @cli_dbgmsg(ptr noundef, ...) local_unnamed_addr #1


!llvm.module.flags = !{!0, !1, !2, !3}

!0 = !{i32 1, !"wchar_size", i32 4}
!1 = !{i32 8, !"PIC Level", i32 2}
!2 = !{i32 7, !"uwtable", i32 2}
!3 = !{i32 7, !"frame-pointer", i32 2}
